; Function Attrs: mustprogress nounwind uwtable
define internal fastcc noundef zeroext i1 @_ZN5clang19RecursiveASTVisitorIN12_GLOBAL__N_123ZeroOutInDeallocRemoverEE31TraverseOMPDeclareReductionDeclEPNS_23OMPDeclareReductionDeclE(ptr noundef nonnull align 1 dereferenceable(1) %0, ptr nocapture noundef readonly %1) unnamed_addr #0 align 2 {
  %3 = getelementptr inbounds nuw i8, ptr %1, i64 88
  %4 = load ptr, ptr %3, align 8
  %5 = tail call fastcc noundef zeroext i1 @_ZN5clang19RecursiveASTVisitorIN12_GLOBAL__N_123ZeroOutInDeallocRemoverEE12TraverseStmtEPNS_4StmtEPN4llvm15SmallVectorImplINS6_14PointerIntPairIS5_Lj1EbNS6_21PointerLikeTypeTraitsIS5_EENS6_18PointerIntPairInfoIS5_Lj1ESA_EEEEEE(ptr noundef nonnull align 1 dereferenceable(1) %0, ptr noundef %4, ptr noundef null)
  br i1 %5, label %6, label %14

6:                                                ; preds = %2
  %7 = getelementptr inbounds nuw i8, ptr %1, i64 96
  %8 = load ptr, ptr %7, align 8
  %.not = icmp eq ptr %8, null
  br i1 %.not, label %11, label %9

9:                                                ; preds = %6
  %10 = tail call fastcc noundef zeroext i1 @_ZN5clang19RecursiveASTVisitorIN12_GLOBAL__N_123ZeroOutInDeallocRemoverEE12TraverseStmtEPNS_4StmtEPN4llvm15SmallVectorImplINS6_14PointerIntPairIS5_Lj1EbNS6_21PointerLikeTypeTraitsIS5_EENS6_18PointerIntPairInfoIS5_Lj1ESA_EEEEEE(ptr noundef nonnull align 1 dereferenceable(1) %0, ptr noundef nonnull %8, ptr noundef null)
  br i1 %10, label %11, label %14

11:                                               ; preds = %6, %9
  %12 = getelementptr inbounds nuw i8, ptr %1, i64 48
  %.sroa.0.0.copyload.i = load i64, ptr %12, align 8
  %13 = tail call fastcc noundef zeroext i1 @_ZN5clang19RecursiveASTVisitorIN12_GLOBAL__N_123ZeroOutInDeallocRemoverEE12TraverseTypeENS_8QualTypeE(ptr noundef nonnull align 1 dereferenceable(1) %0, i64 %.sroa.0.0.copyload.i)
  br label %14

14:                                               ; preds = %11, %9, %2
  %.0 = phi i1 [ false, %2 ], [ false, %9 ], [ %13, %11 ]
  ret i1 %.0
}